; ModuleID = '14/177.c'
source_filename = "14/177.c"
target datalayout = "e-m:e-p270:32:32-p271:32:32-p272:64:64-i64:64-f80:128-n8:16:32:64-S128"
target triple = "x86_64-pc-linux-gnu"

%struct.student = type { i32, i32, i32, i32 }

@.str = private unnamed_addr constant [3 x i8] c"%d\00", align 1
@.str.1 = private unnamed_addr constant [9 x i8] c"%d %d %d\00", align 1
@.str.2 = private unnamed_addr constant [18 x i8] c"%d %d\0A%d %d\0A%d %d\00", align 1

; Function Attrs: noinline nounwind uwtable
define dso_local i32 @main() #0 {
  %1 = alloca i32, align 4
  %2 = alloca [100001 x %struct.student], align 16
  %3 = alloca i32, align 4
  %4 = alloca i32, align 4
  %5 = alloca i32, align 4
  %6 = alloca i32, align 4
  %7 = alloca i32, align 4
  %8 = alloca i32, align 4
  %9 = alloca i32, align 4
  %10 = alloca i32, align 4
  %11 = alloca i32, align 4
  %12 = alloca i32, align 4
  %13 = alloca i32, align 4
  %14 = alloca i32, align 4
  %15 = alloca i32, align 4
  %16 = alloca i32, align 4
  store i32 0, i32* %1, align 4
  %17 = call i32 (i8*, ...) @__isoc99_scanf(i8* getelementptr inbounds ([3 x i8], [3 x i8]* @.str, i64 0, i64 0), i32* %3)
  store i32 1, i32* %4, align 4
  br label %18

18:                                               ; preds = %36, %0
  %19 = load i32, i32* %4, align 4
  %20 = load i32, i32* %3, align 4
  %21 = icmp sle i32 %19, %20
  br i1 %21, label %22, label %39

22:                                               ; preds = %18
  %23 = load i32, i32* %4, align 4
  %24 = sext i32 %23 to i64
  %25 = getelementptr inbounds [100001 x %struct.student], [100001 x %struct.student]* %2, i64 0, i64 %24
  %26 = getelementptr inbounds %struct.student, %struct.student* %25, i32 0, i32 0
  %27 = load i32, i32* %4, align 4
  %28 = sext i32 %27 to i64
  %29 = getelementptr inbounds [100001 x %struct.student], [100001 x %struct.student]* %2, i64 0, i64 %28
  %30 = getelementptr inbounds %struct.student, %struct.student* %29, i32 0, i32 1
  %31 = load i32, i32* %4, align 4
  %32 = sext i32 %31 to i64
  %33 = getelementptr inbounds [100001 x %struct.student], [100001 x %struct.student]* %2, i64 0, i64 %32
  %34 = getelementptr inbounds %struct.student, %struct.student* %33, i32 0, i32 2
  %35 = call i32 (i8*, ...) @__isoc99_scanf(i8* getelementptr inbounds ([9 x i8], [9 x i8]* @.str.1, i64 0, i64 0), i32* %26, i32* %30, i32* %34)
  br label %36

36:                                               ; preds = %22
  %37 = load i32, i32* %4, align 4
  %38 = add nsw i32 %37, 1
  store i32 %38, i32* %4, align 4
  br label %18

39:                                               ; preds = %18
  store i32 1, i32* %4, align 4
  br label %40

40:                                               ; preds = %60, %39
  %41 = load i32, i32* %4, align 4
  %42 = load i32, i32* %3, align 4
  %43 = icmp sle i32 %41, %42
  br i1 %43, label %44, label %63

44:                                               ; preds = %40
  %45 = load i32, i32* %4, align 4
  %46 = sext i32 %45 to i64
  %47 = getelementptr inbounds [100001 x %struct.student], [100001 x %struct.student]* %2, i64 0, i64 %46
  %48 = getelementptr inbounds %struct.student, %struct.student* %47, i32 0, i32 1
  %49 = load i32, i32* %48, align 4
  %50 = load i32, i32* %4, align 4
  %51 = sext i32 %50 to i64
  %52 = getelementptr inbounds [100001 x %struct.student], [100001 x %struct.student]* %2, i64 0, i64 %51
  %53 = getelementptr inbounds %struct.student, %struct.student* %52, i32 0, i32 2
  %54 = load i32, i32* %53, align 8
  %55 = add nsw i32 %49, %54
  %56 = load i32, i32* %4, align 4
  %57 = sext i32 %56 to i64
  %58 = getelementptr inbounds [100001 x %struct.student], [100001 x %struct.student]* %2, i64 0, i64 %57
  %59 = getelementptr inbounds %struct.student, %struct.student* %58, i32 0, i32 3
  store i32 %55, i32* %59, align 4
  br label %60

60:                                               ; preds = %44
  %61 = load i32, i32* %4, align 4
  %62 = add nsw i32 %61, 1
  store i32 %62, i32* %4, align 4
  br label %40

63:                                               ; preds = %40
  store i32 1, i32* %14, align 4
  store i32 1, i32* %15, align 4
  store i32 1, i32* %16, align 4
  %64 = load i32, i32* %3, align 4
  store i32 %64, i32* %4, align 4
  br label %65

65:                                               ; preds = %84, %63
  %66 = load i32, i32* %4, align 4
  %67 = icmp sge i32 %66, 1
  br i1 %67, label %68, label %87

68:                                               ; preds = %65
  %69 = load i32, i32* %4, align 4
  %70 = sext i32 %69 to i64
  %71 = getelementptr inbounds [100001 x %struct.student], [100001 x %struct.student]* %2, i64 0, i64 %70
  %72 = getelementptr inbounds %struct.student, %struct.student* %71, i32 0, i32 3
  %73 = load i32, i32* %72, align 4
  %74 = load i32, i32* %14, align 4
  %75 = icmp sge i32 %73, %74
  br i1 %75, label %76, label %83

76:                                               ; preds = %68
  %77 = load i32, i32* %4, align 4
  %78 = sext i32 %77 to i64
  %79 = getelementptr inbounds [100001 x %struct.student], [100001 x %struct.student]* %2, i64 0, i64 %78
  %80 = getelementptr inbounds %struct.student, %struct.student* %79, i32 0, i32 3
  %81 = load i32, i32* %80, align 4
  store i32 %81, i32* %14, align 4
  %82 = load i32, i32* %4, align 4
  store i32 %82, i32* %8, align 4
  br label %83

83:                                               ; preds = %76, %68
  br label %84

84:                                               ; preds = %83
  %85 = load i32, i32* %4, align 4
  %86 = add nsw i32 %85, -1
  store i32 %86, i32* %4, align 4
  br label %65

87:                                               ; preds = %65
  %88 = load i32, i32* %3, align 4
  store i32 %88, i32* %4, align 4
  br label %89

89:                                               ; preds = %112, %87
  %90 = load i32, i32* %4, align 4
  %91 = icmp sge i32 %90, 1
  br i1 %91, label %92, label %115

92:                                               ; preds = %89
  %93 = load i32, i32* %4, align 4
  %94 = load i32, i32* %8, align 4
  %95 = icmp ne i32 %93, %94
  br i1 %95, label %96, label %111

96:                                               ; preds = %92
  %97 = load i32, i32* %4, align 4
  %98 = sext i32 %97 to i64
  %99 = getelementptr inbounds [100001 x %struct.student], [100001 x %struct.student]* %2, i64 0, i64 %98
  %100 = getelementptr inbounds %struct.student, %struct.student* %99, i32 0, i32 3
  %101 = load i32, i32* %100, align 4
  %102 = load i32, i32* %15, align 4
  %103 = icmp sge i32 %101, %102
  br i1 %103, label %104, label %111

104:                                              ; preds = %96
  %105 = load i32, i32* %4, align 4
  %106 = sext i32 %105 to i64
  %107 = getelementptr inbounds [100001 x %struct.student], [100001 x %struct.student]* %2, i64 0, i64 %106
  %108 = getelementptr inbounds %struct.student, %struct.student* %107, i32 0, i32 3
  %109 = load i32, i32* %108, align 4
  store i32 %109, i32* %15, align 4
  %110 = load i32, i32* %4, align 4
  store i32 %110, i32* %9, align 4
  br label %111

111:                                              ; preds = %104, %96, %92
  br label %112

112:                                              ; preds = %111
  %113 = load i32, i32* %4, align 4
  %114 = add nsw i32 %113, -1
  store i32 %114, i32* %4, align 4
  br label %89

115:                                              ; preds = %89
  %116 = load i32, i32* %3, align 4
  store i32 %116, i32* %4, align 4
  br label %117

117:                                              ; preds = %144, %115
  %118 = load i32, i32* %4, align 4
  %119 = icmp sge i32 %118, 1
  br i1 %119, label %120, label %147

120:                                              ; preds = %117
  %121 = load i32, i32* %4, align 4
  %122 = load i32, i32* %8, align 4
  %123 = icmp ne i32 %121, %122
  br i1 %123, label %124, label %143

124:                                              ; preds = %120
  %125 = load i32, i32* %4, align 4
  %126 = load i32, i32* %9, align 4
  %127 = icmp ne i32 %125, %126
  br i1 %127, label %128, label %143

128:                                              ; preds = %124
  %129 = load i32, i32* %4, align 4
  %130 = sext i32 %129 to i64
  %131 = getelementptr inbounds [100001 x %struct.student], [100001 x %struct.student]* %2, i64 0, i64 %130
  %132 = getelementptr inbounds %struct.student, %struct.student* %131, i32 0, i32 3
  %133 = load i32, i32* %132, align 4
  %134 = load i32, i32* %16, align 4
  %135 = icmp sge i32 %133, %134
  br i1 %135, label %136, label %143

136:                                              ; preds = %128
  %137 = load i32, i32* %4, align 4
  %138 = sext i32 %137 to i64
  %139 = getelementptr inbounds [100001 x %struct.student], [100001 x %struct.student]* %2, i64 0, i64 %138
  %140 = getelementptr inbounds %struct.student, %struct.student* %139, i32 0, i32 3
  %141 = load i32, i32* %140, align 4
  store i32 %141, i32* %16, align 4
  %142 = load i32, i32* %4, align 4
  store i32 %142, i32* %10, align 4
  br label %143

143:                                              ; preds = %136, %128, %124, %120
  br label %144

144:                                              ; preds = %143
  %145 = load i32, i32* %4, align 4
  %146 = add nsw i32 %145, -1
  store i32 %146, i32* %4, align 4
  br label %117

147:                                              ; preds = %117
  %148 = load i32, i32* %8, align 4
  %149 = sext i32 %148 to i64
  %150 = getelementptr inbounds [100001 x %struct.student], [100001 x %struct.student]* %2, i64 0, i64 %149
  %151 = getelementptr inbounds %struct.student, %struct.student* %150, i32 0, i32 0
  %152 = load i32, i32* %151, align 16
  %153 = load i32, i32* %8, align 4
  %154 = sext i32 %153 to i64
  %155 = getelementptr inbounds [100001 x %struct.student], [100001 x %struct.student]* %2, i64 0, i64 %154
  %156 = getelementptr inbounds %struct.student, %struct.student* %155, i32 0, i32 3
  %157 = load i32, i32* %156, align 4
  %158 = load i32, i32* %9, align 4
  %159 = sext i32 %158 to i64
  %160 = getelementptr inbounds [100001 x %struct.student], [100001 x %struct.student]* %2, i64 0, i64 %159
  %161 = getelementptr inbounds %struct.student, %struct.student* %160, i32 0, i32 0
  %162 = load i32, i32* %161, align 16
  %163 = load i32, i32* %9, align 4
  %164 = sext i32 %163 to i64
  %165 = getelementptr inbounds [100001 x %struct.student], [100001 x %struct.student]* %2, i64 0, i64 %164
  %166 = getelementptr inbounds %struct.student, %struct.student* %165, i32 0, i32 3
  %167 = load i32, i32* %166, align 4
  %168 = load i32, i32* %10, align 4
  %169 = sext i32 %168 to i64
  %170 = getelementptr inbounds [100001 x %struct.student], [100001 x %struct.student]* %2, i64 0, i64 %169
  %171 = getelementptr inbounds %struct.student, %struct.student* %170, i32 0, i32 0
  %172 = load i32, i32* %171, align 16
  %173 = load i32, i32* %10, align 4
  %174 = sext i32 %173 to i64
  %175 = getelementptr inbounds [100001 x %struct.student], [100001 x %struct.student]* %2, i64 0, i64 %174
  %176 = getelementptr inbounds %struct.student, %struct.student* %175, i32 0, i32 3
  %177 = load i32, i32* %176, align 4
  %178 = call i32 (i8*, ...) @printf(i8* getelementptr inbounds ([18 x i8], [18 x i8]* @.str.2, i64 0, i64 0), i32 %152, i32 %157, i32 %162, i32 %167, i32 %172, i32 %177)
  %179 = load i32, i32* %1, align 4
  ret i32 %179
}

declare dso_local i32 @__isoc99_scanf(i8*, ...) #1

declare dso_local i32 @printf(i8*, ...) #1


!llvm.module.flags = !{!0}
!llvm.ident = !{!1}

!0 = !{i32 1, !"wchar_size", i32 4}
!1 = !{!"clang version 10.0.0-4ubuntu1 "}
